target datalayout = "e-m:e-p270:32:32-p271:32:32-p272:64:64-i64:64-i128:128-f80:128-n8:16:32:64-S128"
target triple = "x86_64-pc-linux-gnu"

%struct.ClusterInfo = type { %struct.ControlData, ptr, %struct.DbInfoArr, ptr, ptr, ptr, ptr, ptr, i16, i32, [64 x i8], i32, ptr, i32 }
%struct.ControlData = type { i32, i32, [25 x i8], i32, i32, i32, i32, i32, i32, i32, i32, i32, i32, i32, i32, i32, i32, i32, i32, i8, i8, i32 }
%struct.DbInfoArr = type { ptr, i32 }

@old_cluster = external global %struct.ClusterInfo, align 8
@.str.90 = private unnamed_addr constant [10 x i8] c"template1\00", align 1
@.str.112 = private unnamed_addr constant [35 x i8] c"Checking for prepared transactions\00", align 1
@.str.113 = private unnamed_addr constant [43 x i8] c"SELECT * FROM pg_catalog.pg_prepared_xacts\00", align 1
@.str.114 = private unnamed_addr constant [50 x i8] c"The source cluster contains prepared transactions\00", align 1
@.str.115 = private unnamed_addr constant [50 x i8] c"The target cluster contains prepared transactions\00", align 1

; Function Attrs: nounwind uwtable
define internal void @check_for_prepared_transactions(ptr noundef %0) #0 {
  %2 = alloca ptr, align 8
  %3 = alloca ptr, align 8
  %4 = alloca ptr, align 8
  store ptr %0, ptr %2, align 8
  call void @llvm.lifetime.start.p0(i64 8, ptr %3) #9
  call void @llvm.lifetime.start.p0(i64 8, ptr %4) #9
  %5 = load ptr, ptr %2, align 8
  %6 = call ptr @connectToServer(ptr noundef %5, ptr noundef @.str.90)
  store ptr %6, ptr %4, align 8
  call void (ptr, ...) @prep_status(ptr noundef @.str.112)
  %7 = load ptr, ptr %4, align 8
  %8 = call ptr (ptr, ptr, ...) @executeQueryOrDie(ptr noundef %7, ptr noundef @.str.113)
  store ptr %8, ptr %3, align 8
  %9 = load ptr, ptr %3, align 8
  %10 = call i32 @PQntuples(ptr noundef %9)
  %11 = icmp ne i32 %10, 0
  br i1 %11, label %12, label %17

12:                                               ; preds = %1
  %13 = load ptr, ptr %2, align 8
  %14 = icmp eq ptr %13, @old_cluster
  br i1 %14, label %15, label %16

15:                                               ; preds = %12
  call void (ptr, ...) @pg_fatal(ptr noundef @.str.114) #11
  unreachable

16:                                               ; preds = %12
  call void (ptr, ...) @pg_fatal(ptr noundef @.str.115) #11
  unreachable

17:                                               ; preds = %1
  %18 = load ptr, ptr %3, align 8
  call void @PQclear(ptr noundef %18)
  %19 = load ptr, ptr %4, align 8
  call void @PQfinish(ptr noundef %19)
  call void @check_ok()
  call void @llvm.lifetime.end.p0(i64 8, ptr %4) #9
  call void @llvm.lifetime.end.p0(i64 8, ptr %3) #9
  ret void
}