; Function Attrs: nounwind uwtable
define internal fastcc void @check_for_prepared_transactions(ptr noundef %0) unnamed_addr #0 {
  %2 = tail call ptr @connectToServer(ptr noundef %0, ptr noundef nonnull @.str.90) #10
  tail call void (ptr, ...) @prep_status(ptr noundef nonnull @.str.112) #10
  %3 = tail call ptr (ptr, ptr, ...) @executeQueryOrDie(ptr noundef %2, ptr noundef nonnull @.str.113) #10
  %4 = tail call i32 @PQntuples(ptr noundef %3) #10
  %.not = icmp eq i32 %4, 0
  br i1 %.not, label %9, label %5

5:                                                ; preds = %1
  %6 = icmp eq ptr %0, @old_cluster
  br i1 %6, label %7, label %8

7:                                                ; preds = %5
  tail call void (ptr, ...) @pg_fatal(ptr noundef nonnull @.str.114) #12
  unreachable

8:                                                ; preds = %5
  tail call void (ptr, ...) @pg_fatal(ptr noundef nonnull @.str.115) #12
  unreachable

9:                                                ; preds = %1
  tail call void @PQclear(ptr noundef %3) #10
  tail call void @PQfinish(ptr noundef %2) #10
  tail call void @check_ok() #10
  ret void
}